Certificate:
    Data:
        Version: 3 (0x2)
        Serial Number: 3 (0x3)
        Signature Algorithm: sha256WithRSAEncryption
        Issuer: O=Yugabyte, CN=CA for YugabyteDB
        Validity
            Not Before: Mar 18 11:04:46 2026 GMT
            Not After : Mar 15 11:04:46 2036 GMT
        Subject: O=Yugabyte, CN=10.0.0.12
        Subject Public Key Info:
            Public Key Algorithm: rsaEncryption
                Public-Key: (2048 bit)
                Modulus:
                    00:9e:b0:6d:55:72:4a:30:2d:d7:ab:e4:ef:b4:06:
                    54:5f:a6:d3:b3:8a:da:98:6f:82:00:d9:8d:85:f0:
                    d2:c0:d9:7e:49:33:81:b3:b7:ad:37:8b:f6:9e:07:
                    9b:28:de:bc:cb:f0:72:0b:be:86:38:ae:b8:4a:6c:
                    bc:8d:86:3a:af:96:0a:bb:c1:b5:31:41:d3:ae:2f:
                    e1:93:b7:35:26:6c:73:e5:d6:4b:6b:34:94:c7:be:
                    e8:df:53:ba:75:ac:85:1a:b3:4a:d5:95:5a:ea:19:
                    98:27:e9:ff:3a:ad:aa:7e:5e:05:fa:91:b6:01:bc:
                    f7:4b:07:c8:d8:b0:8d:9c:61:33:95:04:da:ce:03:
                    15:66:86:da:40:b2:ef:b4:9d:76:3a:90:b1:15:77:
                    21:b6:40:e5:ce:29:fe:88:e2:97:3b:0c:ec:2f:38:
                    6a:6a:d5:67:64:bb:37:a1:d9:6c:09:af:e3:49:4a:
                    6d:31:7b:eb:c0:a0:48:20:0c:7b:5f:44:93:27:da:
                    77:70:f3:a7:9c:bc:17:73:d3:38:89:5e:e8:46:f6:
                    35:df:7d:99:df:49:96:5d:c7:d3:da:9b:63:58:30:
                    e5:b3:ed:c1:d8:b7:80:3a:32:e9:32:82:44:6f:13:
                    7f:25:dc:57:29:79:c9:c6:9c:a8:e0:4d:46:ad:56:
                    08:a5
                Exponent: 65537 (0x10001)
        X509v3 extensions:
            X509v3 Subject Alternative Name: 
                IP Address:10.0.0.10, IP Address:10.0.0.11, IP Address:10.0.0.12
            X509v3 Subject Key Identifier: 
                02:E7:88:CE:BE:F2:62:DE:6E:CC:BF:94:41:34:38:4C:AB:C6:26:BC
            X509v3 Authority Key Identifier: 
                E8:FC:35:3D:3E:2E:9D:6C:28:FD:68:08:0A:25:2F:6F:F5:D2:EB:8E
    Signature Algorithm: sha256WithRSAEncryption
    Signature Value:
        5f:59:fd:df:45:96:d5:ec:91:f6:49:22:2a:0e:e5:bf:af:f2:
        ad:c5:a1:c3:bf:be:1f:61:c0:0b:c8:67:a2:15:24:7f:f9:8f:
        1d:6a:1a:7a:8a:d4:e0:8c:c4:8d:3c:20:ee:c5:2e:ab:8c:6e:
        5a:d0:52:93:06:13:61:b1:09:a3:6e:50:a8:4c:3b:40:b0:27:
        e4:1b:99:0e:d8:4d:bf:36:dd:c8:66:03:a3:ff:ee:81:d5:0e:
        a0:76:62:54:f5:aa:00:f3:cb:2e:91:5c:d2:b8:98:12:25:58:
        c5:a8:16:3a:67:a5:7c:70:30:6f:3c:f4:c2:c4:b0:1f:73:7e:
        92:f9:18:9f:dc:8e:af:6c:ed:6b:a6:68:84:1f:23:60:5d:07:
        50:02:a4:6c:af:76:46:95:85:2d:a6:fb:e5:68:25:96:4a:fd:
        66:9a:f3:22:90:b3:3e:d1:b8:18:5f:e9:7f:06:49:20:4e:2d:
        85:01:d5:f9:1c:45:d7:1f:08:96:39:30:e7:16:42:02:16:67:
        d2:9c:22:38:d6:6f:cd:6f:e4:30:d0:57:70:80:8a:47:db:44:
        14:a0:7d:46:0a:39:03:37:23:ff:8a:84:66:39:c4:7c:c1:f4:
        31:41:13:f4:6e:28:62:9b:7e:12:01:a1:43:ad:e2:39:74:96:
        05:9c:0a:2e:a0:9a:29:b1:ba:07:3d:90:fb:72:58:a7:a0:c2:
        a9:88:09:c1:1d:a6:61:f9:a6:a5:0d:99:8f:6b:80:0f:38:fa:
        96:c9:21:3e:8d:73:0b:0f:65:65:2e:49:86:7a:80:03:dc:00:
        f5:fc:a6:b1:5b:75:ce:38:f3:53:76:5f:bb:7f:4d:34:fe:b1:
        82:4d:a6:70:01:16:a4:c3:54:2a:57:56:84:58:3d:bd:33:6c:
        27:88:86:9d:c6:54:66:61:87:6d:c5:5a:76:b4:dd:d8:c5:d4:
        fa:2d:17:34:e0:b9:bf:41:d1:d0:f9:b0:f3:dd:b4:a4:87:d4:
        5d:55:6b:ea:7b:0d:71:a5:00:ee:63:4d:32:5e:35:ba:7e:b0:
        f7:e3:5e:a5:ae:6e:66:f3:55:f2:e7:be:8d:df:b9:ec:6d:66:
        31:63:f4:8c:91:fe:22:e9:3e:af:6a:c9:9b:9d:1e:9a:6d:54:
        28:28:7c:1c:34:82:2d:05:00:2c:01:76:69:23:e7:d8:56:c0:
        90:eb:a6:c0:81:c6:6b:ab:4f:79:d0:94:78:97:d0:57:cd:70:
        b0:9e:06:73:07:28:8a:86:17:5c:57:3b:e2:5d:9c:36:d8:9a:
        d6:af:37:b6:d3:5c:8c:d7:64:ab:ba:86:27:db:ee:e5:66:35:
        e6:8e:a3:45:7d:b4:00:ac
-----BEGIN CERTIFICATE-----
MIIEMDCCAhigAwIBAgIBAzANBgkqhkiG9w0BAQsFADAvMREwDwYDVQQKDAhZdWdh
Ynl0ZTEaMBgGA1UEAwwRQ0EgZm9yIFl1Z2FieXRlREIwHhcNMjYwMzE4MTEwNDQ2
WhcNMzYwMzE1MTEwNDQ2WjAnMREwDwYDVQQKDAhZdWdhYnl0ZTESMBAGA1UEAwwJ
MTAuMC4wLjEyMIIBIjANBgkqhkiG9w0BAQEFAAOCAQ8AMIIBCgKCAQEAnrBtVXJK
MC3Xq+TvtAZUX6bTs4ramG+CANmNhfDSwNl+STOBs7etN4v2ngebKN68y/ByC76G
OK64Smy8jYY6r5YKu8G1MUHTri/hk7c1Jmxz5dZLazSUx77o31O6dayFGrNK1ZVa
6hmYJ+n/Oq2qfl4F+pG2Abz3SwfI2LCNnGEzlQTazgMVZobaQLLvtJ12OpCxFXch
tkDlzin+iOKXOwzsLzhqatVnZLs3odlsCa/jSUptMXvrwKBIIAx7X0STJ9p3cPOn
nLwXc9M4iV7oRvY1332Z30mWXcfT2ptjWDDls+3B2LeAOjLpMoJEbxN/JdxXKXnJ
xpyo4E1GrVYIpQIDAQABo18wXTAbBgNVHREEFDAShwQKAAAKhwQKAAALhwQKAAAM
MB0GA1UdDgQWBBQC54jOvvJi3m7Mv5RBNDhMq8YmvDAfBgNVHSMEGDAWgBTo/DU9
Pi6dbCj9aAgKJS9v9dLrjjANBgkqhkiG9w0BAQsFAAOCAgEAX1n930WW1eyR9kki
Kg7lv6/yrcWhw7++H2HAC8hnohUkf/mPHWoaeorU4IzEjTwg7sUuq4xuWtBSkwYT
YbEJo25QqEw7QLAn5BuZDthNvzbdyGYDo//ugdUOoHZiVPWqAPPLLpFc0riYEiVY
xagWOmelfHAwbzz0wsSwH3N+kvkYn9yOr2zta6ZohB8jYF0HUAKkbK92RpWFLab7
5Wgllkr9ZprzIpCzPtG4GF/pfwZJIE4thQHV+RxF1x8Iljkw5xZCAhZn0pwiONZv
zW/kMNBXcICKR9tEFKB9Rgo5Azcj/4qEZjnEfMH0MUET9G4oYpt+EgGhQ63iOXSW
BZwKLqCaKbG6Bz2Q+3JYp6DCqYgJwR2mYfmmpQ2Zj2uADzj6lskhPo1zCw9lZS5J
hnqAA9wA9fymsVt1zjjzU3Zfu39NNP6xgk2mcAEWpMNUKldWhFg9vTNsJ4iGncZU
ZmGHbcVadrTd2MXU+i0XNOC5v0HR0Pmw8920pIfUXVVr6nsNcaUA7mNNMl41un6w
9+Nepa5uZvNV8ue+jd+57G1mMWP0jJH+Iuk+r2rJm50emm1UKCh8HDSCLQUALAF2
aSPn2FbAkOumwIHGa6tPedCUeJfQV81wsJ4GcwcoioYXXFc74l2cNtia1q83ttNc
jNdkq7qGJ9vu5WY15o6jRX20AKw=
-----END CERTIFICATE-----
