Certificate:
    Data:
        Version: 3 (0x2)
        Serial Number: 3 (0x3)
        Signature Algorithm: sha256WithRSAEncryption
        Issuer: O=Yugabyte, CN=CA for YugabyteDB
        Validity
            Not Before: Mar 19 04:43:45 2026 GMT
            Not After : Mar 16 04:43:45 2036 GMT
        Subject: O=Yugabyte, CN=10.0.0.12
        Subject Public Key Info:
            Public Key Algorithm: rsaEncryption
                Public-Key: (2048 bit)
                Modulus:
                    00:a0:62:a7:26:89:61:bd:84:bc:ee:0b:7c:99:c0:
                    1d:1a:fa:c0:2e:c4:b7:91:69:5d:ee:5a:15:41:07:
                    1d:f8:46:ca:40:ff:54:b7:25:2f:75:fd:1d:27:df:
                    6e:66:69:47:78:98:af:2f:67:8c:e8:88:16:c4:a2:
                    1c:63:27:72:3e:03:51:91:a4:dc:da:cb:2f:93:e7:
                    ff:f7:49:25:62:f9:20:2f:2c:69:95:9b:43:9b:60:
                    6f:8b:b2:3d:61:26:a3:45:ae:16:90:17:3a:dc:1f:
                    ac:d7:c1:52:39:d9:3c:33:10:53:6d:e6:0c:ca:73:
                    d4:3a:04:a9:1d:19:6e:b8:8d:40:67:7a:6b:65:91:
                    93:fa:a8:a5:82:c6:94:2c:1c:5a:c2:26:77:38:97:
                    f4:09:44:dc:f8:7b:c0:e4:c6:11:c2:e1:2f:97:6b:
                    84:ec:26:1a:fd:2a:86:95:52:12:0c:54:2c:df:47:
                    1c:f6:a8:6c:e1:62:fb:6a:65:44:7d:5f:fe:88:ec:
                    35:4b:68:16:2a:4d:84:fe:63:da:a6:4a:b0:19:94:
                    85:29:38:e9:94:e8:e4:8c:54:ae:89:6e:40:ed:eb:
                    7f:62:61:3d:6c:45:9f:f5:fe:fb:95:30:71:09:e8:
                    50:fb:9c:51:53:bb:23:f2:7c:75:f7:bd:ef:a1:74:
                    61:23
                Exponent: 65537 (0x10001)
        X509v3 extensions:
            X509v3 Subject Alternative Name: 
                IP Address:10.0.0.10, IP Address:10.0.0.11, IP Address:10.0.0.12
            X509v3 Subject Key Identifier: 
                F0:15:5B:AA:B1:C3:C2:5E:83:EA:01:F9:F7:D4:D0:63:45:7A:A5:C5
            X509v3 Authority Key Identifier: 
                C1:6A:1C:E4:33:79:79:C0:FB:25:B7:C9:07:97:B0:FD:37:24:9D:4A
    Signature Algorithm: sha256WithRSAEncryption
    Signature Value:
        25:12:39:e8:d9:19:e7:0e:72:ee:e3:7e:7d:06:e7:7e:4c:32:
        9c:30:91:6a:8c:a5:88:9b:e0:63:45:b9:62:75:4e:bf:15:28:
        6e:c1:a6:dd:6f:a9:85:58:53:4c:b5:0e:dd:87:a5:f4:4e:d1:
        a8:f5:33:6b:59:07:51:89:c3:84:46:fe:00:ac:9c:c9:be:4a:
        2c:a0:ac:a0:12:c0:b8:3f:e3:fa:98:dd:3f:1c:b8:fe:45:53:
        aa:26:a9:1f:9e:40:63:58:78:1d:5a:b2:a2:54:7c:63:d7:a1:
        a2:c0:7b:86:2b:dd:52:9f:ce:79:0e:da:d6:36:51:60:41:19:
        48:aa:c8:b8:84:59:2f:a2:37:d2:23:f5:f6:d3:f7:56:4a:cb:
        16:a7:81:6b:c7:8a:3b:f5:1b:3a:14:bd:de:52:32:3c:2b:40:
        3f:77:3d:1f:11:29:a1:76:b1:75:2c:fe:a5:10:32:0b:61:36:
        08:2e:16:99:8e:7b:54:3a:61:19:68:04:fb:52:8d:3b:92:d6:
        a6:58:34:85:0b:ed:08:f5:22:a6:a7:cf:07:60:00:c4:83:c2:
        9e:b7:fd:ac:3f:1e:ed:a6:1f:5a:97:71:c9:aa:55:2e:a7:dd:
        33:b1:8b:c5:d4:10:51:c0:90:10:7b:4f:34:f9:9d:e6:9a:88:
        24:4a:d4:22
-----BEGIN CERTIFICATE-----
MIIDMDCCAhigAwIBAgIBAzANBgkqhkiG9w0BAQsFADAvMREwDwYDVQQKDAhZdWdh
Ynl0ZTEaMBgGA1UEAwwRQ0EgZm9yIFl1Z2FieXRlREIwHhcNMjYwMzE5MDQ0MzQ1
WhcNMzYwMzE2MDQ0MzQ1WjAnMREwDwYDVQQKDAhZdWdhYnl0ZTESMBAGA1UEAwwJ
MTAuMC4wLjEyMIIBIjANBgkqhkiG9w0BAQEFAAOCAQ8AMIIBCgKCAQEAoGKnJolh
vYS87gt8mcAdGvrALsS3kWld7loVQQcd+EbKQP9UtyUvdf0dJ99uZmlHeJivL2eM
6IgWxKIcYydyPgNRkaTc2ssvk+f/90klYvkgLyxplZtDm2Bvi7I9YSajRa4WkBc6
3B+s18FSOdk8MxBTbeYMynPUOgSpHRluuI1AZ3prZZGT+qilgsaULBxawiZ3OJf0
CUTc+HvA5MYRwuEvl2uE7CYa/SqGlVISDFQs30cc9qhs4WL7amVEfV/+iOw1S2gW
Kk2E/mPapkqwGZSFKTjplOjkjFSuiW5A7et/YmE9bEWf9f77lTBxCehQ+5xRU7sj
8nx1973voXRhIwIDAQABo18wXTAbBgNVHREEFDAShwQKAAAKhwQKAAALhwQKAAAM
MB0GA1UdDgQWBBTwFVuqscPCXoPqAfn31NBjRXqlxTAfBgNVHSMEGDAWgBTBahzk
M3l5wPslt8kHl7D9NySdSjANBgkqhkiG9w0BAQsFAAOCAQEAJRI56NkZ5w5y7uN+
fQbnfkwynDCRaoyliJvgY0W5YnVOvxUobsGm3W+phVhTTLUO3Yel9E7RqPUza1kH
UYnDhEb+AKycyb5KLKCsoBLAuD/j+pjdPxy4/kVTqiapH55AY1h4HVqyolR8Y9eh
osB7hivdUp/OeQ7a1jZRYEEZSKrIuIRZL6I30iP19tP3VkrLFqeBa8eKO/UbOhS9
3lIyPCtAP3c9HxEpoXaxdSz+pRAyC2E2CC4WmY57VDphGWgE+1KNO5LWplg0hQvt
CPUipqfPB2AAxIPCnrf9rD8e7aYfWpdxyapVLqfdM7GLxdQQUcCQEHtPNPmd5pqI
JErUIg==
-----END CERTIFICATE-----
