Certificate:
    Data:
        Version: 3 (0x2)
        Serial Number: 2 (0x2)
        Signature Algorithm: sha256WithRSAEncryption
        Issuer: O=Yugabyte, CN=CA for YugabyteDB
        Validity
            Not Before: Mar 19 04:43:21 2026 GMT
            Not After : Mar 16 04:43:21 2036 GMT
        Subject: O=Yugabyte, CN=10.0.0.11
        Subject Public Key Info:
            Public Key Algorithm: rsaEncryption
                Public-Key: (2048 bit)
                Modulus:
                    00:bb:6a:12:b1:db:58:89:38:b3:cf:a0:20:33:60:
                    79:4e:8a:1b:a2:38:9d:b4:88:cb:3a:44:7c:75:0e:
                    24:1d:7b:ff:cb:cc:ea:32:30:b8:8e:78:b7:20:73:
                    cd:5a:27:94:79:6d:db:f8:8a:97:73:bc:8e:85:77:
                    c3:4b:38:27:6c:53:5e:d1:7e:80:9f:df:82:9f:cb:
                    89:98:51:a0:4d:d4:70:92:6a:49:f8:87:df:9f:03:
                    1f:b4:65:2d:82:8e:2d:6c:e9:90:68:06:55:7e:89:
                    fb:a4:c5:6c:94:96:d4:0f:ce:4f:3e:df:e6:de:61:
                    f4:f1:9a:f2:d8:74:4e:60:2c:ab:69:30:f3:2b:ca:
                    d2:0e:88:5f:2b:62:f5:16:74:ce:74:7a:22:59:71:
                    38:cd:0d:b8:9f:9b:15:65:01:98:64:38:71:d4:ae:
                    19:f4:26:05:b5:da:38:df:88:cc:0b:2d:d1:41:19:
                    19:2a:a2:76:cb:d6:54:e3:f1:9c:ae:f9:11:2e:03:
                    28:c4:56:cb:a4:5f:21:15:9a:ed:4b:06:f2:67:95:
                    0d:25:67:fe:7a:6b:1b:bd:83:95:e7:5d:78:d0:6a:
                    2a:69:d2:3a:9e:7f:d2:b5:28:78:60:23:cd:1b:b9:
                    de:e2:1f:cd:67:31:d2:71:f2:64:d3:4d:07:43:fc:
                    ec:0f
                Exponent: 65537 (0x10001)
        X509v3 extensions:
            X509v3 Subject Alternative Name: 
                IP Address:10.0.0.10, IP Address:10.0.0.11, IP Address:10.0.0.12
            X509v3 Subject Key Identifier: 
                0A:54:AE:5F:EC:B5:9B:74:AC:E3:DF:F5:37:78:79:3C:B1:A1:1B:4B
            X509v3 Authority Key Identifier: 
                C1:6A:1C:E4:33:79:79:C0:FB:25:B7:C9:07:97:B0:FD:37:24:9D:4A
    Signature Algorithm: sha256WithRSAEncryption
    Signature Value:
        0f:7d:69:58:7a:3d:60:61:f2:22:0c:1f:9a:6e:7f:f3:f6:04:
        e3:78:f8:9f:58:1c:a2:9a:17:96:16:38:34:8e:f7:b0:7a:9c:
        05:8f:03:30:43:1f:e7:29:25:30:0b:5c:df:36:85:42:6a:2b:
        54:11:b6:f2:0a:36:01:13:4b:2d:18:d5:a1:e7:94:b2:de:9f:
        ce:f9:7b:88:d5:f0:e0:33:0d:26:59:26:67:4b:c4:9e:3b:c7:
        e0:d5:99:60:e3:d7:c6:98:24:be:17:8c:8a:89:90:d6:85:49:
        f9:79:ad:8b:10:db:ad:74:3f:6b:8c:7c:08:65:d5:33:fa:b6:
        9b:fb:1c:85:79:4f:05:50:ca:4d:d3:35:64:8b:3f:cc:dc:07:
        e0:fa:f7:98:7f:29:d1:c6:37:39:1c:e0:18:4a:d9:72:c4:26:
        d6:a5:b8:57:af:b9:4a:74:6e:3a:76:57:25:14:4c:6c:8f:bf:
        03:3f:b5:e1:d5:9e:d9:04:ab:92:1d:25:da:2c:23:98:11:63:
        51:2f:79:9c:47:5f:e4:eb:1b:7b:20:19:21:d2:72:e5:9c:43:
        85:88:71:9c:db:c8:b6:e4:f5:52:36:53:c6:1a:93:cc:16:64:
        9f:eb:6f:c3:5a:84:00:ce:1b:2f:13:55:f1:db:0d:c1:de:de:
        97:7b:6f:21
-----BEGIN CERTIFICATE-----
MIIDMDCCAhigAwIBAgIBAjANBgkqhkiG9w0BAQsFADAvMREwDwYDVQQKDAhZdWdh
Ynl0ZTEaMBgGA1UEAwwRQ0EgZm9yIFl1Z2FieXRlREIwHhcNMjYwMzE5MDQ0MzIx
WhcNMzYwMzE2MDQ0MzIxWjAnMREwDwYDVQQKDAhZdWdhYnl0ZTESMBAGA1UEAwwJ
MTAuMC4wLjExMIIBIjANBgkqhkiG9w0BAQEFAAOCAQ8AMIIBCgKCAQEAu2oSsdtY
iTizz6AgM2B5ToobojidtIjLOkR8dQ4kHXv/y8zqMjC4jni3IHPNWieUeW3b+IqX
c7yOhXfDSzgnbFNe0X6An9+Cn8uJmFGgTdRwkmpJ+IffnwMftGUtgo4tbOmQaAZV
fon7pMVslJbUD85PPt/m3mH08Zry2HROYCyraTDzK8rSDohfK2L1FnTOdHoiWXE4
zQ24n5sVZQGYZDhx1K4Z9CYFtdo434jMCy3RQRkZKqJ2y9ZU4/GcrvkRLgMoxFbL
pF8hFZrtSwbyZ5UNJWf+emsbvYOV51140GoqadI6nn/StSh4YCPNG7ne4h/NZzHS
cfJk000HQ/zsDwIDAQABo18wXTAbBgNVHREEFDAShwQKAAAKhwQKAAALhwQKAAAM
MB0GA1UdDgQWBBQKVK5f7LWbdKzj3/U3eHk8saEbSzAfBgNVHSMEGDAWgBTBahzk
M3l5wPslt8kHl7D9NySdSjANBgkqhkiG9w0BAQsFAAOCAQEAD31pWHo9YGHyIgwf
mm5/8/YE43j4n1gcopoXlhY4NI73sHqcBY8DMEMf5yklMAtc3zaFQmorVBG28go2
ARNLLRjVoeeUst6fzvl7iNXw4DMNJlkmZ0vEnjvH4NWZYOPXxpgkvheMiomQ1oVJ
+XmtixDbrXQ/a4x8CGXVM/q2m/schXlPBVDKTdM1ZIs/zNwH4Pr3mH8p0cY3ORzg
GErZcsQm1qW4V6+5SnRuOnZXJRRMbI+/Az+14dWe2QSrkh0l2iwjmBFjUS95nEdf
5OsbeyAZIdJy5ZxDhYhxnNvItuT1UjZTxhqTzBZkn+tvw1qEAM4bLxNV8dsNwd7e
l3tvIQ==
-----END CERTIFICATE-----
